; Function Attrs: mustprogress uwtable
define noundef zeroext i1 @_ZNK18OpenImageIO_v2_6_014ParamValueList8containsENS_17basic_string_viewIcSt11char_traitsIcEEENS_8TypeDescEb(ptr nocapture noundef nonnull readonly align 8 dereferenceable(24) %this, ptr nocapture noundef readonly %name, ptr nocapture noundef readonly %type, i1 noundef zeroext %casesensitive) local_unnamed_addr #10 align 2 {
entry:
  %agg.tmp = alloca %"class.OpenImageIO_v2_6_0::basic_string_view", align 8
  %agg.tmp2 = alloca %"struct.OpenImageIO_v2_6_0::TypeDesc", align 4
  %0 = load ptr, ptr %name, align 8
  store ptr %0, ptr %agg.tmp, align 8
  %m_len.i = getelementptr inbounds i8, ptr %agg.tmp, i64 8
  %m_len.i.i = getelementptr inbounds i8, ptr %name, i64 8
  %1 = load i64, ptr %m_len.i.i, align 8
  store i64 %1, ptr %m_len.i, align 8
  %2 = load i8, ptr %type, align 4
  store i8 %2, ptr %agg.tmp2, align 4
  %aggregate.i = getelementptr inbounds i8, ptr %agg.tmp2, i64 1
  %aggregate3.i = getelementptr inbounds i8, ptr %type, i64 1
  %3 = load i8, ptr %aggregate3.i, align 1
  store i8 %3, ptr %aggregate.i, align 1
  %vecsemantics.i = getelementptr inbounds i8, ptr %agg.tmp2, i64 2
  %vecsemantics4.i = getelementptr inbounds i8, ptr %type, i64 2
  %4 = load i8, ptr %vecsemantics4.i, align 2
  store i8 %4, ptr %vecsemantics.i, align 2
  %reserved.i = getelementptr inbounds i8, ptr %agg.tmp2, i64 3
  store i8 0, ptr %reserved.i, align 1
  %arraylen.i = getelementptr inbounds i8, ptr %agg.tmp2, i64 4
  %arraylen5.i = getelementptr inbounds i8, ptr %type, i64 4
  %5 = load i32, ptr %arraylen5.i, align 4
  store i32 %5, ptr %arraylen.i, align 4
  %call = call ptr @_ZNK18OpenImageIO_v2_6_014ParamValueList4findENS_17basic_string_viewIcSt11char_traitsIcEEENS_8TypeDescEb(ptr noundef nonnull align 8 dereferenceable(24) %this, ptr noundef nonnull %agg.tmp, ptr noundef nonnull %agg.tmp2, i1 noundef zeroext %casesensitive)
  %_M_finish.i = getelementptr inbounds i8, ptr %this, i64 8
  %6 = load ptr, ptr %_M_finish.i, align 8
  %cmp.i = icmp ne ptr %call, %6
  ret i1 %cmp.i
}